Certificate:
    Data:
        Version: 3 (0x2)
        Serial Number: 2 (0x2)
    Signature Algorithm: sha1WithRSAEncryption
        Issuer: DC=org, DC=simple, O=Simple Inc, OU=Simple Root CA, CN=Simple Root CA
        Validity
            Not Before: Nov 27 05:05:32 2020 GMT
            Not After : Nov 27 05:05:32 2030 GMT
        Subject: DC=org, DC=simple, O=Simple Inc, OU=Simple Signing CA, CN=Simple Signing CA
        Subject Public Key Info:
            Public Key Algorithm: rsaEncryption
                Public-Key: (2048 bit)
                Modulus:
                    00:dd:82:88:27:f0:ff:0e:a4:63:1d:ca:f8:da:12:
                    d1:b4:28:c5:4b:06:91:75:2f:58:15:71:e0:e4:a2:
                    b3:d8:74:d2:6e:3f:bb:40:a7:72:19:0c:cc:b0:2e:
                    85:cc:6e:60:2b:fc:80:61:9a:94:f2:03:0a:0a:81:
                    73:0c:11:8b:4e:4d:ea:30:85:e6:fd:e7:be:11:e7:
                    b4:04:fd:66:f0:bf:ec:43:14:c0:ac:a1:6e:8b:f2:
                    f3:ff:d3:7d:71:a2:b2:c1:bb:3c:16:49:f6:f5:fb:
                    d9:1c:3a:05:5b:49:cd:74:e2:f7:99:34:69:a8:a2:
                    e4:66:37:42:e9:b3:bf:36:7a:84:a8:8b:35:d6:ad:
                    fe:fc:b5:04:29:db:9f:f6:d7:03:9f:db:e2:25:18:
                    8d:b4:01:4d:dd:99:f0:8b:42:70:64:21:69:b8:84:
                    15:04:f0:db:a9:17:fe:38:8e:4e:be:c8:b8:11:93:
                    99:0d:33:73:bc:d1:da:45:83:0b:2d:32:eb:03:ba:
                    1f:19:ff:73:5c:c0:26:20:77:1c:70:06:67:da:05:
                    3e:5a:10:f8:04:47:67:59:07:c3:f1:1c:50:0d:cf:
                    9f:1b:44:e0:a2:5e:51:47:17:7a:a7:4d:85:d5:de:
                    4b:42:43:b7:9d:dc:90:b6:7f:f2:6a:50:81:cc:4a:
                    43:57
                Exponent: 65537 (0x10001)
        X509v3 extensions:
            X509v3 Key Usage: critical
                Certificate Sign, CRL Sign
            X509v3 Basic Constraints: critical
                CA:TRUE, pathlen:0
            X509v3 Subject Key Identifier: 
                3A:46:CC:8E:7B:00:F1:A8:8A:54:CF:D0:BC:1A:A2:4D:F4:0E:C3:BB
            X509v3 Authority Key Identifier: 
                keyid:31:5E:EC:D0:41:B3:76:6D:6C:08:C5:95:49:42:B0:D2:9F:1D:E6:27

    Signature Algorithm: sha1WithRSAEncryption
         0a:f5:65:8f:1e:ea:1b:5a:8e:00:ea:0c:55:73:85:a1:b1:96:
         a8:a8:b6:06:05:11:cc:39:03:ea:d6:2d:c7:cd:78:b5:a1:f6:
         79:f0:df:0d:2f:72:68:64:8a:45:46:7c:74:44:4f:b3:db:5f:
         35:a3:56:d2:92:de:0f:0f:55:ab:e2:fa:d7:33:77:7f:fd:f9:
         67:ca:3a:a4:2e:f8:40:15:4a:97:9c:a0:66:68:56:5a:70:65:
         92:bf:b4:7a:d7:5b:fc:04:55:9a:57:96:4b:41:e1:d9:03:5e:
         3e:f6:fe:4b:04:1a:8d:30:d6:c0:92:e6:44:4b:0a:37:9d:c3:
         57:bf:af:13:47:26:60:b2:6e:19:04:46:a4:dc:99:69:73:52:
         b3:1b:b6:40:45:af:f3:d3:e8:9b:3d:d9:ed:eb:b4:a8:b8:34:
         28:a9:8c:02:df:83:af:36:a0:39:b8:2f:c0:b2:bd:c0:15:d0:
         c2:09:a4:9a:f3:3f:83:21:07:cd:7d:48:c6:ac:aa:b6:8f:03:
         f8:1b:15:03:e0:c1:19:35:c9:4f:75:f5:27:99:42:06:b9:d5:
         9e:42:6a:a7:b2:2b:45:32:17:ae:f4:83:e2:14:bf:f2:d3:04:
         ef:aa:a6:92:2d:33:f0:38:a4:bc:fd:e9:d6:64:b6:e2:40:17:
         3e:6b:6a:ad
-----BEGIN CERTIFICATE-----
MIIDzzCCAregAwIBAgIBAjANBgkqhkiG9w0BAQUFADB0MRMwEQYKCZImiZPyLGQB
GRYDb3JnMRYwFAYKCZImiZPyLGQBGRYGc2ltcGxlMRMwEQYDVQQKDApTaW1wbGUg
SW5jMRcwFQYDVQQLDA5TaW1wbGUgUm9vdCBDQTEXMBUGA1UEAwwOU2ltcGxlIFJv
b3QgQ0EwHhcNMjAxMTI3MDUwNTMyWhcNMzAxMTI3MDUwNTMyWjB6MRMwEQYKCZIm
iZPyLGQBGRYDb3JnMRYwFAYKCZImiZPyLGQBGRYGc2ltcGxlMRMwEQYDVQQKDApT
aW1wbGUgSW5jMRowGAYDVQQLDBFTaW1wbGUgU2lnbmluZyBDQTEaMBgGA1UEAwwR
U2ltcGxlIFNpZ25pbmcgQ0EwggEiMA0GCSqGSIb3DQEBAQUAA4IBDwAwggEKAoIB
AQDdgogn8P8OpGMdyvjaEtG0KMVLBpF1L1gVceDkorPYdNJuP7tAp3IZDMywLoXM
bmAr/IBhmpTyAwoKgXMMEYtOTeowheb9574R57QE/Wbwv+xDFMCsoW6L8vP/031x
orLBuzwWSfb1+9kcOgVbSc104veZNGmoouRmN0Lps782eoSoizXWrf78tQQp25/2
1wOf2+IlGI20AU3dmfCLQnBkIWm4hBUE8NupF/44jk6+yLgRk5kNM3O80dpFgwst
MusDuh8Z/3NcwCYgdxxwBmfaBT5aEPgER2dZB8PxHFANz58bROCiXlFHF3qnTYXV
3ktCQ7ed3JC2f/JqUIHMSkNXAgMBAAGjZjBkMA4GA1UdDwEB/wQEAwIBBjASBgNV
HRMBAf8ECDAGAQH/AgEAMB0GA1UdDgQWBBQ6RsyOewDxqIpUz9C8GqJN9A7DuzAf
BgNVHSMEGDAWgBQxXuzQQbN2bWwIxZVJQrDSnx3mJzANBgkqhkiG9w0BAQUFAAOC
AQEACvVljx7qG1qOAOoMVXOFobGWqKi2BgURzDkD6tYtx814taH2efDfDS9yaGSK
RUZ8dERPs9tfNaNW0pLeDw9Vq+L61zN3f/35Z8o6pC74QBVKl5ygZmhWWnBlkr+0
etdb/ARVmleWS0Hh2QNePvb+SwQajTDWwJLmREsKN53DV7+vE0cmYLJuGQRGpNyZ
aXNSsxu2QEWv89Pomz3Z7eu0qLg0KKmMAt+DrzagObgvwLK9wBXQwgmkmvM/gyEH
zX1Ixqyqto8D+BsVA+DBGTXJT3X1J5lCBrnVnkJqp7IrRTIXrvSD4hS/8tME76qm
ki0z8DikvP3p1mS24kAXPmtqrQ==
-----END CERTIFICATE-----
