Certificate:
    Data:
        Version: 3 (0x2)
        Serial Number: 2 (0x2)
    Signature Algorithm: sha1WithRSAEncryption
        Issuer: DC=org, DC=simple, O=Simple Inc, OU=Simple Root CA, CN=Simple Root CA
        Validity
            Not Before: Nov 27 05:05:32 2020 GMT
            Not After : Nov 27 05:05:32 2030 GMT
        Subject: DC=org, DC=simple, O=Simple Inc, OU=Simple Signing CA, CN=Simple Signing CA
        Subject Public Key Info:
            Public Key Algorithm: rsaEncryption
                Public-Key: (2048 bit)
                Modulus:
                    00:dd:82:88:27:f0:ff:0e:a4:63:1d:ca:f8:da:12:
                    d1:b4:28:c5:4b:06:91:75:2f:58:15:71:e0:e4:a2:
                    b3:d8:74:d2:6e:3f:bb:40:a7:72:19:0c:cc:b0:2e:
                    85:cc:6e:60:2b:fc:80:61:9a:94:f2:03:0a:0a:81:
                    73:0c:11:8b:4e:4d:ea:30:85:e6:fd:e7:be:11:e7:
                    b4:04:fd:66:f0:bf:ec:43:14:c0:ac:a1:6e:8b:f2:
                    f3:ff:d3:7d:71:a2:b2:c1:bb:3c:16:49:f6:f5:fb:
                    d9:1c:3a:05:5b:49:cd:74:e2:f7:99:34:69:a8:a2:
                    e4:66:37:42:e9:b3:bf:36:7a:84:a8:8b:35:d6:ad:
                    fe:fc:b5:04:29:db:9f:f6:d7:03:9f:db:e2:25:18:
                    8d:b4:01:4d:dd:99:f0:8b:42:70:64:21:69:b8:84:
                    15:04:f0:db:a9:17:fe:38:8e:4e:be:c8:b8:11:93:
                    99:0d:33:73:bc:d1:da:45:83:0b:2d:32:eb:03:ba:
                    1f:19:ff:73:5c:c0:26:20:77:1c:70:06:67:da:05:
                    3e:5a:10:f8:04:47:67:59:07:c3:f1:1c:50:0d:cf:
                    9f:1b:44:e0:a2:5e:51:47:17:7a:a7:4d:85:d5:de:
                    4b:42:43:b7:9d:dc:90:b6:7f:f2:6a:50:81:cc:4a:
                    43:57
                Exponent: 65537 (0x10001)
        X509v3 extensions:
            X509v3 Key Usage: critical
                Certificate Sign, CRL Sign
            X509v3 Basic Constraints: critical
                CA:TRUE, pathlen:0
            X509v3 Subject Key Identifier: 
                3A:46:CC:8E:7B:00:F1:A8:8A:54:CF:D0:BC:1A:A2:4D:F4:0E:C3:BB
            X509v3 Authority Key Identifier: 
                keyid:31:5E:EC:D0:41:B3:76:6D:6C:08:C5:95:49:42:B0:D2:9F:1D:E6:27

    Signature Algorithm: sha1WithRSAEncryption
         0a:f5:65:8f:1e:ea:1b:5a:8e:00:ea:0c:55:73:85:a1:b1:96:
         a8:a8:b6:06:05:11:cc:39:03:ea:d6:2d:c7:cd:78:b5:a1:f6:
         79:f0:df:0d:2f:72:68:64:8a:45:46:7c:74:44:4f:b3:db:5f:
         35:a3:56:d2:92:de:0f:0f:55:ab:e2:fa:d7:33:77:7f:fd:f9:
         67:ca:3a:a4:2e:f8:40:15:4a:97:9c:a0:66:68:56:5a:70:65:
         92:bf:b4:7a:d7:5b:fc:04:55:9a:57:96:4b:41:e1:d9:03:5e:
         3e:f6:fe:4b:04:1a:8d:30:d6:c0:92:e6:44:4b:0a:37:9d:c3:
         57:bf:af:13:47:26:60:b2:6e:19:04:46:a4:dc:99:69:73:52:
         b3:1b:b6:40:45:af:f3:d3:e8:9b:3d:d9:ed:eb:b4:a8:b8:34:
         28:a9:8c:02:df:83:af:36:a0:39:b8:2f:c0:b2:bd:c0:15:d0:
         c2:09:a4:9a:f3:3f:83:21:07:cd:7d:48:c6:ac:aa:b6:8f:03:
         f8:1b:15:03:e0:c1:19:35:c9:4f:75:f5:27:99:42:06:b9:d5:
         9e:42:6a:a7:b2:2b:45:32:17:ae:f4:83:e2:14:bf:f2:d3:04:
         ef:aa:a6:92:2d:33:f0:38:a4:bc:fd:e9:d6:64:b6:e2:40:17:
         3e:6b:6a:ad
-----BEGIN CERTIFICATE-----
MIIDzzCCAregAwIBAgIBAjANBgkqhkiG9w0BAQUFADB0MRMwEQYKCZImiZPyLGQB
GRYDb3JnMRYwFAYKCZImiZPyLGQBGRYGc2ltcGxlMRMwEQYDVQQKDApTaW1wbGUg
SW5jMRcwFQYDVQQLDA5TaW1wbGUgUm9vdCBDQTEXMBUGA1UEAwwOU2ltcGxlIFJv
b3QgQ0EwHhcNMjAxMTI3MDUwNTMyWhcNMzAxMTI3MDUwNTMyWjB6MRMwEQYKCZIm
iZPyLGQBGRYDb3JnMRYwFAYKCZImiZPyLGQBGRYGc2ltcGxlMRMwEQYDVQQKDApT
aW1wbGUgSW5jMRowGAYDVQQLDBFTaW1wbGUgU2lnbmluZyBDQTEaMBgGA1UEAwwR
U2ltcGxlIFNpZ25pbmcgQ0EwggEiMA0GCSqGSIb3DQEBAQUAA4IBDwAwggEKAoIB
AQDdgogn8P8OpGMdyvjaEtG0KMVLBpF1L1gVceDkorPYdNJuP7tAp3IZDMywLoXM
bmAr/IBhmpTyAwoKgXMMEYtOTeowheb9574R57QE/Wbwv+xDFMCsoW6L8vP/031x
orLBuzwWSfb1+9kcOgVbSc104veZNGmoouRmN0Lps782eoSoizXWrf78tQQp25/2
1wOf2+IlGI20AU3dmfCLQnBkIWm4hBUE8NupF/44jk6+yLgRk5kNM3O80dpFgwst
MusDuh8Z/3NcwCYgdxxwBmfaBT5aEPgER2dZB8PxHFANz58bROCiXlFHF3qnTYXV
3ktCQ7ed3JC2f/JqUIHMSkNXAgMBAAGjZjBkMA4GA1UdDwEB/wQEAwIBBjASBgNV
HRMBAf8ECDAGAQH/AgEAMB0GA1UdDgQWBBQ6RsyOewDxqIpUz9C8GqJN9A7DuzAf
BgNVHSMEGDAWgBQxXuzQQbN2bWwIxZVJQrDSnx3mJzANBgkqhkiG9w0BAQUFAAOC
AQEACvVljx7qG1qOAOoMVXOFobGWqKi2BgURzDkD6tYtx814taH2efDfDS9yaGSK
RUZ8dERPs9tfNaNW0pLeDw9Vq+L61zN3f/35Z8o6pC74QBVKl5ygZmhWWnBlkr+0
etdb/ARVmleWS0Hh2QNePvb+SwQajTDWwJLmREsKN53DV7+vE0cmYLJuGQRGpNyZ
aXNSsxu2QEWv89Pomz3Z7eu0qLg0KKmMAt+DrzagObgvwLK9wBXQwgmkmvM/gyEH
zX1Ixqyqto8D+BsVA+DBGTXJT3X1J5lCBrnVnkJqp7IrRTIXrvSD4hS/8tME76qm
ki0z8DikvP3p1mS24kAXPmtqrQ==
-----END CERTIFICATE-----
Certificate:
    Data:
        Version: 3 (0x2)
        Serial Number: 1 (0x1)
    Signature Algorithm: sha1WithRSAEncryption
        Issuer: DC=org, DC=simple, O=Simple Inc, OU=Simple Root CA, CN=Simple Root CA
        Validity
            Not Before: Nov 27 05:03:27 2020 GMT
            Not After : Nov 27 05:03:27 2030 GMT
        Subject: DC=org, DC=simple, O=Simple Inc, OU=Simple Root CA, CN=Simple Root CA
        Subject Public Key Info:
            Public Key Algorithm: rsaEncryption
                Public-Key: (2048 bit)
                Modulus:
                    00:d5:f6:4d:18:1a:0d:fe:12:0e:3d:04:d3:c3:4f:
                    a1:6a:f6:7c:a8:56:3d:a5:95:b9:e0:d9:e4:e4:2a:
                    9e:be:ba:43:aa:c3:00:69:3e:c0:cb:f7:b3:d9:48:
                    be:3e:2d:18:a6:bf:f4:b3:85:9e:46:07:dd:22:ee:
                    61:56:78:70:76:de:e6:85:62:8c:7b:ef:c0:0d:1d:
                    23:a9:22:8e:c6:74:41:a9:90:3e:6d:0c:5e:ef:43:
                    5d:e4:3a:e7:fa:e1:7a:15:db:05:a4:3b:d4:09:c1:
                    1a:6e:f4:95:92:e8:c1:e4:81:e2:fa:a9:67:24:0f:
                    23:a4:70:77:c5:dd:9b:2f:62:8c:6c:b5:08:4b:80:
                    0d:2a:26:d0:b8:7f:a7:82:b2:da:72:48:25:55:29:
                    b1:93:d5:aa:c3:09:df:4f:83:e6:5d:b7:c6:53:b7:
                    9e:46:9d:b9:4f:60:aa:9e:e0:be:ae:f9:d4:61:26:
                    1c:e3:ac:0f:00:95:97:b4:7b:04:74:74:83:2d:23:
                    7f:44:73:7b:80:3b:7a:88:02:78:6f:c1:85:c0:e2:
                    2a:ed:c5:e1:1f:af:c0:cf:51:dd:99:f5:33:19:a3:
                    4a:99:f1:cc:6e:2d:58:7b:21:29:c3:00:4b:a0:4b:
                    8d:39:41:d5:73:31:85:45:1a:68:b4:da:1a:49:23:
                    d3:e5
                Exponent: 65537 (0x10001)
        X509v3 extensions:
            X509v3 Key Usage: critical
                Certificate Sign, CRL Sign
            X509v3 Basic Constraints: critical
                CA:TRUE
            X509v3 Subject Key Identifier: 
                31:5E:EC:D0:41:B3:76:6D:6C:08:C5:95:49:42:B0:D2:9F:1D:E6:27
            X509v3 Authority Key Identifier: 
                keyid:31:5E:EC:D0:41:B3:76:6D:6C:08:C5:95:49:42:B0:D2:9F:1D:E6:27

    Signature Algorithm: sha1WithRSAEncryption
         80:84:36:b6:f1:ba:c3:f4:1a:59:fd:30:a2:a4:41:28:39:bd:
         4e:e2:57:07:6f:90:f8:21:c5:d1:ff:5e:12:ee:fe:43:87:b3:
         2b:50:f2:2d:5e:2a:e7:90:55:fc:aa:b5:6f:0c:0d:62:f9:3d:
         c0:ab:46:7d:6f:3c:cd:29:e4:6b:b0:d6:3f:73:56:77:bb:97:
         b3:30:04:11:1d:c1:4a:e8:00:d9:96:0f:49:4d:22:8a:00:ed:
         ca:15:bf:17:77:d1:f7:f3:df:43:ec:3f:db:5e:a5:8c:5a:4a:
         65:28:59:f4:a6:f8:77:ad:ec:90:46:cf:1c:8d:52:34:db:8d:
         d1:ee:76:cf:35:9a:22:a9:79:3c:94:04:59:09:66:49:7b:78:
         6c:a6:44:94:c3:b9:74:15:0e:7e:85:7c:1d:0c:e1:b4:56:61:
         8c:b4:e5:f8:ce:ea:f8:b0:ef:82:ba:2c:59:fe:f0:2a:c6:e9:
         e2:14:21:cf:72:86:b3:15:9f:6d:cb:5f:d2:eb:aa:66:ab:a6:
         fe:bc:cf:7f:09:0e:87:dc:d6:8a:a0:c0:5a:73:d8:d8:57:a5:
         61:c4:e0:df:13:cb:ef:5a:4d:d4:2c:38:16:e1:60:d7:98:06:
         bc:dc:7a:9d:f7:cc:29:e8:ca:8c:97:e5:72:fb:15:85:37:02:
         ed:38:13:d8
-----BEGIN CERTIFICATE-----
MIIDxjCCAq6gAwIBAgIBATANBgkqhkiG9w0BAQUFADB0MRMwEQYKCZImiZPyLGQB
GRYDb3JnMRYwFAYKCZImiZPyLGQBGRYGc2ltcGxlMRMwEQYDVQQKDApTaW1wbGUg
SW5jMRcwFQYDVQQLDA5TaW1wbGUgUm9vdCBDQTEXMBUGA1UEAwwOU2ltcGxlIFJv
b3QgQ0EwHhcNMjAxMTI3MDUwMzI3WhcNMzAxMTI3MDUwMzI3WjB0MRMwEQYKCZIm
iZPyLGQBGRYDb3JnMRYwFAYKCZImiZPyLGQBGRYGc2ltcGxlMRMwEQYDVQQKDApT
aW1wbGUgSW5jMRcwFQYDVQQLDA5TaW1wbGUgUm9vdCBDQTEXMBUGA1UEAwwOU2lt
cGxlIFJvb3QgQ0EwggEiMA0GCSqGSIb3DQEBAQUAA4IBDwAwggEKAoIBAQDV9k0Y
Gg3+Eg49BNPDT6Fq9nyoVj2llbng2eTkKp6+ukOqwwBpPsDL97PZSL4+LRimv/Sz
hZ5GB90i7mFWeHB23uaFYox778ANHSOpIo7GdEGpkD5tDF7vQ13kOuf64XoV2wWk
O9QJwRpu9JWS6MHkgeL6qWckDyOkcHfF3ZsvYoxstQhLgA0qJtC4f6eCstpySCVV
KbGT1arDCd9Pg+Zdt8ZTt55GnblPYKqe4L6u+dRhJhzjrA8AlZe0ewR0dIMtI39E
c3uAO3qIAnhvwYXA4irtxeEfr8DPUd2Z9TMZo0qZ8cxuLVh7ISnDAEugS405QdVz
MYVFGmi02hpJI9PlAgMBAAGjYzBhMA4GA1UdDwEB/wQEAwIBBjAPBgNVHRMBAf8E
BTADAQH/MB0GA1UdDgQWBBQxXuzQQbN2bWwIxZVJQrDSnx3mJzAfBgNVHSMEGDAW
gBQxXuzQQbN2bWwIxZVJQrDSnx3mJzANBgkqhkiG9w0BAQUFAAOCAQEAgIQ2tvG6
w/QaWf0woqRBKDm9TuJXB2+Q+CHF0f9eEu7+Q4ezK1DyLV4q55BV/Kq1bwwNYvk9
wKtGfW88zSnka7DWP3NWd7uXszAEER3BSugA2ZYPSU0iigDtyhW/F3fR9/PfQ+w/
216ljFpKZShZ9Kb4d63skEbPHI1SNNuN0e52zzWaIql5PJQEWQlmSXt4bKZElMO5
dBUOfoV8HQzhtFZhjLTl+M7q+LDvgrosWf7wKsbp4hQhz3KGsxWfbctf0uuqZqum
/rzPfwkOh9zWiqDAWnPY2FelYcTg3xPL71pN1Cw4FuFg15gGvNx6nffMKejKjJfl
cvsVhTcC7TgT2A==
-----END CERTIFICATE-----
