Certificate:
    Data:
        Version: 3 (0x2)
        Serial Number: 2 (0x2)
    Signature Algorithm: sha1WithRSAEncryption
        Issuer: DC=org, DC=simple, O=Simple Inc, OU=Simple Signing CA, CN=Simple Signing CA
        Validity
            Not Before: Nov 27 05:08:49 2020 GMT
            Not After : Nov 27 05:08:49 2022 GMT
        Subject: DC=org, DC=simple, O=Simple Inc, CN=www.simple.org
        Subject Public Key Info:
            Public Key Algorithm: rsaEncryption
                Public-Key: (2048 bit)
                Modulus:
                    00:a4:2c:6d:d0:54:b8:d5:32:08:14:42:f8:3f:76:
                    57:7f:70:67:09:fc:48:49:bb:31:64:e7:42:54:8e:
                    16:b5:54:63:7b:76:9a:df:09:97:f1:17:a5:3a:81:
                    fc:6c:d5:56:36:35:07:04:55:d3:3c:f6:04:d0:9b:
                    2b:eb:c5:5a:ad:ef:ec:07:45:8f:56:eb:bc:ec:d7:
                    7d:9e:74:0d:b5:c1:f8:03:d9:33:a0:00:d7:66:f6:
                    8e:ad:fa:94:3c:9c:10:fb:00:8e:3a:65:47:bd:1a:
                    47:e0:f4:f9:e3:03:08:d8:b3:40:70:ef:30:b1:35:
                    4b:bc:7b:ac:2e:90:11:ad:7b:05:ac:d2:c2:9c:91:
                    e4:b0:7d:1a:ca:f4:11:e7:fc:9c:32:95:4e:19:d5:
                    ff:2b:b7:88:e1:50:18:dc:b9:c2:e4:3c:f1:f3:0e:
                    2e:ae:76:69:8d:a9:d4:0f:8e:2b:5f:71:04:72:4c:
                    8f:e0:d6:72:cf:40:af:6f:ab:78:03:8a:8f:66:37:
                    36:3f:eb:65:fb:ff:97:74:b1:5b:b2:01:a6:8c:20:
                    fe:cd:f6:30:63:34:be:cc:c2:68:f7:a8:c9:1a:06:
                    87:92:30:e1:26:4a:f9:16:8e:00:de:bd:60:15:e4:
                    7b:62:01:bb:d8:f5:b4:b7:9b:ca:bc:dd:0a:10:88:
                    1f:8f
                Exponent: 65537 (0x10001)
        X509v3 extensions:
            X509v3 Key Usage: critical
                Digital Signature, Key Encipherment
            X509v3 Basic Constraints: 
                CA:FALSE
            X509v3 Extended Key Usage: 
                TLS Web Server Authentication, TLS Web Client Authentication
            X509v3 Subject Key Identifier: 
                CA:D3:8E:3E:B5:FD:45:B2:4D:E1:0C:20:5E:E2:0A:D1:05:FD:5A:98
            X509v3 Authority Key Identifier: 
                keyid:3A:46:CC:8E:7B:00:F1:A8:8A:54:CF:D0:BC:1A:A2:4D:F4:0E:C3:BB

            X509v3 Subject Alternative Name: 
                DNS:yourdomain.tld
    Signature Algorithm: sha1WithRSAEncryption
         0c:79:fe:4f:6f:ba:57:4e:42:d6:97:c0:af:b3:94:6b:9c:c2:
         74:3d:88:98:5c:aa:42:43:eb:8b:1a:6e:1c:be:b2:1f:7c:04:
         50:59:04:c3:70:3a:1b:41:cc:95:59:1c:0c:54:52:7f:d0:07:
         5f:ae:1a:8a:d1:06:8d:56:ca:ed:3a:0b:b6:da:fc:be:36:10:
         a9:b5:de:a1:c1:63:3b:fa:a5:4e:44:21:4a:07:6f:7c:0e:06:
         84:66:fa:88:22:e9:08:ef:d5:58:31:93:f6:c9:4d:27:8a:dc:
         9b:c1:30:c7:91:bb:ef:a0:2b:bb:be:af:a5:20:e4:8e:17:63:
         fd:17:71:6e:04:dc:c2:c0:8c:08:81:39:d5:36:f6:ea:e3:eb:
         64:f5:65:89:53:4c:77:7b:a7:45:f9:0a:c3:25:7c:56:e9:ab:
         49:cc:99:4b:41:19:67:e8:32:cf:65:bc:f3:c8:d8:8f:4f:1a:
         23:2c:f2:39:8d:f2:34:2c:9b:82:32:24:62:a6:a1:b8:2e:47:
         b7:e1:5f:97:3f:94:52:1d:6a:79:d4:b3:3d:bc:89:99:a8:98:
         99:e3:06:e6:ca:8c:5a:37:2b:12:c0:2b:d2:02:7a:55:32:df:
         78:f0:de:60:c0:21:2f:27:7a:8f:be:3a:1c:4e:00:0b:9c:37:
         d8:5a:f4:d6
-----BEGIN CERTIFICATE-----
MIID6TCCAtGgAwIBAgIBAjANBgkqhkiG9w0BAQUFADB6MRMwEQYKCZImiZPyLGQB
GRYDb3JnMRYwFAYKCZImiZPyLGQBGRYGc2ltcGxlMRMwEQYDVQQKDApTaW1wbGUg
SW5jMRowGAYDVQQLDBFTaW1wbGUgU2lnbmluZyBDQTEaMBgGA1UEAwwRU2ltcGxl
IFNpZ25pbmcgQ0EwHhcNMjAxMTI3MDUwODQ5WhcNMjIxMTI3MDUwODQ5WjBbMRMw
EQYKCZImiZPyLGQBGRYDb3JnMRYwFAYKCZImiZPyLGQBGRYGc2ltcGxlMRMwEQYD
VQQKDApTaW1wbGUgSW5jMRcwFQYDVQQDDA53d3cuc2ltcGxlLm9yZzCCASIwDQYJ
KoZIhvcNAQEBBQADggEPADCCAQoCggEBAKQsbdBUuNUyCBRC+D92V39wZwn8SEm7
MWTnQlSOFrVUY3t2mt8Jl/EXpTqB/GzVVjY1BwRV0zz2BNCbK+vFWq3v7AdFj1br
vOzXfZ50DbXB+APZM6AA12b2jq36lDycEPsAjjplR70aR+D0+eMDCNizQHDvMLE1
S7x7rC6QEa17BazSwpyR5LB9Gsr0Eef8nDKVThnV/yu3iOFQGNy5wuQ88fMOLq52
aY2p1A+OK19xBHJMj+DWcs9Ar2+reAOKj2Y3Nj/rZfv/l3SxW7IBpowg/s32MGM0
vszCaPeoyRoGh5Iw4SZK+RaOAN69YBXke2IBu9j1tLebyrzdChCIH48CAwEAAaOB
mDCBlTAOBgNVHQ8BAf8EBAMCBaAwCQYDVR0TBAIwADAdBgNVHSUEFjAUBggrBgEF
BQcDAQYIKwYBBQUHAwIwHQYDVR0OBBYEFMrTjj61/UWyTeEMIF7iCtEF/VqYMB8G
A1UdIwQYMBaAFDpGzI57APGoilTP0Lwaok30DsO7MBkGA1UdEQQSMBCCDnlvdXJk
b21haW4udGxkMA0GCSqGSIb3DQEBBQUAA4IBAQAMef5Pb7pXTkLWl8Cvs5RrnMJ0
PYiYXKpCQ+uLGm4cvrIffARQWQTDcDobQcyVWRwMVFJ/0AdfrhqK0QaNVsrtOgu2
2vy+NhCptd6hwWM7+qVORCFKB298DgaEZvqIIukI79VYMZP2yU0nitybwTDHkbvv
oCu7vq+lIOSOF2P9F3FuBNzCwIwIgTnVNvbq4+tk9WWJU0x3e6dF+QrDJXxW6atJ
zJlLQRln6DLPZbzzyNiPTxojLPI5jfI0LJuCMiRipqG4Lke34V+XP5RSHWp51LM9
vImZqJiZ4wbmyoxaNysSwCvSAnpVMt948N5gwCEvJ3qPvjocTgALnDfYWvTW
-----END CERTIFICATE-----
