Certificate:
    Data:
        Version: 3 (0x2)
        Serial Number: 1 (0x1)
    Signature Algorithm: sha1WithRSAEncryption
        Issuer: DC=org, DC=simple, O=Simple Inc, OU=Simple Signing CA, CN=Simple Signing CA
        Validity
            Not Before: Nov 27 05:07:27 2020 GMT
            Not After : Nov 27 05:07:27 2022 GMT
        Subject: DC=org, DC=simple, O=Simple Inc, CN=Fred Flintstone
        Subject Public Key Info:
            Public Key Algorithm: rsaEncryption
                Public-Key: (2048 bit)
                Modulus:
                    00:b8:bb:66:2e:fa:23:81:2f:bf:5f:35:91:70:9f:
                    ac:9d:94:fd:21:4e:66:24:7b:b1:75:c5:5d:c4:26:
                    05:af:7b:b6:c2:6e:8e:42:5f:7a:49:60:8b:55:39:
                    e0:7b:2f:3e:61:27:5f:5e:0c:ef:5e:f1:15:c7:4c:
                    e2:21:f6:80:8c:ff:2e:69:3e:e0:0e:7b:1a:63:2d:
                    68:66:2e:87:17:ff:60:3d:d5:12:47:4a:41:db:55:
                    0f:a7:e1:cf:1c:32:5b:c8:af:ca:7d:04:11:01:fa:
                    ea:7a:7c:a4:3d:ac:90:c0:d3:86:27:78:1f:3f:85:
                    af:e4:00:f7:e0:6d:f9:e0:eb:72:03:d3:7b:0e:cc:
                    10:98:13:85:f1:bd:85:9e:66:d4:4f:3c:99:cb:69:
                    c5:27:04:90:97:5c:17:f6:af:26:93:87:ff:80:8c:
                    f1:dd:a7:6e:50:35:e6:f1:dc:46:2f:b6:be:1b:9d:
                    14:a7:3c:45:4a:50:e7:f1:4e:81:9c:86:b2:5b:7e:
                    eb:98:76:f0:15:c9:e6:25:0e:4b:8b:f7:53:07:da:
                    c4:de:f6:48:b4:14:fe:f1:4e:58:a2:55:de:24:35:
                    f0:3d:1b:5a:6e:70:c2:c0:8d:0d:11:17:8e:29:f0:
                    71:c1:a8:51:40:83:0e:41:a1:fe:58:96:2e:71:a4:
                    8d:91
                Exponent: 65537 (0x10001)
        X509v3 extensions:
            X509v3 Key Usage: critical
                Digital Signature, Key Encipherment
            X509v3 Basic Constraints: 
                CA:FALSE
            X509v3 Extended Key Usage: 
                E-mail Protection, TLS Web Client Authentication
            X509v3 Subject Key Identifier: 
                C0:67:48:16:86:B3:73:C2:5F:6F:30:F8:FA:2B:1C:59:B6:47:2E:5D
            X509v3 Authority Key Identifier: 
                keyid:3A:46:CC:8E:7B:00:F1:A8:8A:54:CF:D0:BC:1A:A2:4D:F4:0E:C3:BB

            X509v3 Subject Alternative Name: 
                email:fred@simple.org
    Signature Algorithm: sha1WithRSAEncryption
         b4:0b:71:e9:27:2c:17:41:31:46:b2:ab:65:0c:53:e4:ae:01:
         9f:b0:e4:9d:38:17:7f:ce:f2:63:b0:c7:87:f3:76:22:04:7e:
         ac:85:2b:bd:67:93:4f:ba:49:64:d6:68:83:e1:2d:54:fd:54:
         c4:70:c8:b0:1c:3e:3e:c4:33:50:c6:40:19:70:45:05:79:8d:
         82:81:9b:2f:c1:8c:ad:97:aa:e4:48:59:e1:56:d1:d6:5b:37:
         97:2f:55:c1:4f:f6:bc:87:3b:ce:2a:6a:95:68:b4:ab:5e:49:
         62:e2:b2:32:d9:53:a7:81:b6:53:a4:b3:24:b5:da:e5:df:7a:
         f3:97:43:d4:3a:a0:31:67:ec:ca:f7:2c:42:34:fd:07:74:03:
         d5:e8:e8:d2:6c:52:92:44:6c:76:24:a1:5b:fb:56:71:6a:70:
         b6:26:d5:1b:45:b3:1e:38:72:cc:44:1e:94:e5:73:7b:c7:84:
         af:60:0b:00:16:49:e6:3a:aa:0d:ce:39:3d:ec:0a:0c:55:c7:
         a4:43:59:44:5a:27:c1:9c:f6:98:72:b2:29:61:a1:30:52:21:
         b8:32:9a:bf:e8:c8:e5:38:1c:38:9a:7c:d1:88:ee:98:2a:d3:
         e7:b1:b2:4e:d1:04:2e:c1:6d:94:e6:16:96:36:82:c5:14:7e:
         33:fc:a4:b0
-----BEGIN CERTIFICATE-----
MIID6zCCAtOgAwIBAgIBATANBgkqhkiG9w0BAQUFADB6MRMwEQYKCZImiZPyLGQB
GRYDb3JnMRYwFAYKCZImiZPyLGQBGRYGc2ltcGxlMRMwEQYDVQQKDApTaW1wbGUg
SW5jMRowGAYDVQQLDBFTaW1wbGUgU2lnbmluZyBDQTEaMBgGA1UEAwwRU2ltcGxl
IFNpZ25pbmcgQ0EwHhcNMjAxMTI3MDUwNzI3WhcNMjIxMTI3MDUwNzI3WjBcMRMw
EQYKCZImiZPyLGQBGRYDb3JnMRYwFAYKCZImiZPyLGQBGRYGc2ltcGxlMRMwEQYD
VQQKDApTaW1wbGUgSW5jMRgwFgYDVQQDDA9GcmVkIEZsaW50c3RvbmUwggEiMA0G
CSqGSIb3DQEBAQUAA4IBDwAwggEKAoIBAQC4u2Yu+iOBL79fNZFwn6ydlP0hTmYk
e7F1xV3EJgWve7bCbo5CX3pJYItVOeB7Lz5hJ19eDO9e8RXHTOIh9oCM/y5pPuAO
expjLWhmLocX/2A91RJHSkHbVQ+n4c8cMlvIr8p9BBEB+up6fKQ9rJDA04YneB8/
ha/kAPfgbfng63ID03sOzBCYE4XxvYWeZtRPPJnLacUnBJCXXBf2ryaTh/+AjPHd
p25QNebx3EYvtr4bnRSnPEVKUOfxToGchrJbfuuYdvAVyeYlDkuL91MH2sTe9ki0
FP7xTliiVd4kNfA9G1pucMLAjQ0RF44p8HHBqFFAgw5Bof5Yli5xpI2RAgMBAAGj
gZkwgZYwDgYDVR0PAQH/BAQDAgWgMAkGA1UdEwQCMAAwHQYDVR0lBBYwFAYIKwYB
BQUHAwQGCCsGAQUFBwMCMB0GA1UdDgQWBBTAZ0gWhrNzwl9vMPj6KxxZtkcuXTAf
BgNVHSMEGDAWgBQ6RsyOewDxqIpUz9C8GqJN9A7DuzAaBgNVHREEEzARgQ9mcmVk
QHNpbXBsZS5vcmcwDQYJKoZIhvcNAQEFBQADggEBALQLceknLBdBMUayq2UMU+Su
AZ+w5J04F3/O8mOwx4fzdiIEfqyFK71nk0+6SWTWaIPhLVT9VMRwyLAcPj7EM1DG
QBlwRQV5jYKBmy/BjK2XquRIWeFW0dZbN5cvVcFP9ryHO84qapVotKteSWLisjLZ
U6eBtlOksyS12uXfevOXQ9Q6oDFn7Mr3LEI0/Qd0A9Xo6NJsUpJEbHYkoVv7VnFq
cLYm1RtFsx44csxEHpTlc3vHhK9gCwAWSeY6qg3OOT3sCgxVx6RDWURaJ8Gc9phy
silhoTBSIbgymr/oyOU4HDiafNGI7pgq0+exsk7RBC7BbZTmFpY2gsUUfjP8pLA=
-----END CERTIFICATE-----
