Certificate:
    Data:
        Version: 3 (0x2)
        Serial Number: 1 (0x1)
    Signature Algorithm: sha1WithRSAEncryption
        Issuer: DC=org, DC=simple, O=Simple Inc, OU=Simple Root CA, CN=Simple Root CA
        Validity
            Not Before: Nov 27 05:03:27 2020 GMT
            Not After : Nov 27 05:03:27 2030 GMT
        Subject: DC=org, DC=simple, O=Simple Inc, OU=Simple Root CA, CN=Simple Root CA
        Subject Public Key Info:
            Public Key Algorithm: rsaEncryption
                Public-Key: (2048 bit)
                Modulus:
                    00:d5:f6:4d:18:1a:0d:fe:12:0e:3d:04:d3:c3:4f:
                    a1:6a:f6:7c:a8:56:3d:a5:95:b9:e0:d9:e4:e4:2a:
                    9e:be:ba:43:aa:c3:00:69:3e:c0:cb:f7:b3:d9:48:
                    be:3e:2d:18:a6:bf:f4:b3:85:9e:46:07:dd:22:ee:
                    61:56:78:70:76:de:e6:85:62:8c:7b:ef:c0:0d:1d:
                    23:a9:22:8e:c6:74:41:a9:90:3e:6d:0c:5e:ef:43:
                    5d:e4:3a:e7:fa:e1:7a:15:db:05:a4:3b:d4:09:c1:
                    1a:6e:f4:95:92:e8:c1:e4:81:e2:fa:a9:67:24:0f:
                    23:a4:70:77:c5:dd:9b:2f:62:8c:6c:b5:08:4b:80:
                    0d:2a:26:d0:b8:7f:a7:82:b2:da:72:48:25:55:29:
                    b1:93:d5:aa:c3:09:df:4f:83:e6:5d:b7:c6:53:b7:
                    9e:46:9d:b9:4f:60:aa:9e:e0:be:ae:f9:d4:61:26:
                    1c:e3:ac:0f:00:95:97:b4:7b:04:74:74:83:2d:23:
                    7f:44:73:7b:80:3b:7a:88:02:78:6f:c1:85:c0:e2:
                    2a:ed:c5:e1:1f:af:c0:cf:51:dd:99:f5:33:19:a3:
                    4a:99:f1:cc:6e:2d:58:7b:21:29:c3:00:4b:a0:4b:
                    8d:39:41:d5:73:31:85:45:1a:68:b4:da:1a:49:23:
                    d3:e5
                Exponent: 65537 (0x10001)
        X509v3 extensions:
            X509v3 Key Usage: critical
                Certificate Sign, CRL Sign
            X509v3 Basic Constraints: critical
                CA:TRUE
            X509v3 Subject Key Identifier: 
                31:5E:EC:D0:41:B3:76:6D:6C:08:C5:95:49:42:B0:D2:9F:1D:E6:27
            X509v3 Authority Key Identifier: 
                keyid:31:5E:EC:D0:41:B3:76:6D:6C:08:C5:95:49:42:B0:D2:9F:1D:E6:27

    Signature Algorithm: sha1WithRSAEncryption
         80:84:36:b6:f1:ba:c3:f4:1a:59:fd:30:a2:a4:41:28:39:bd:
         4e:e2:57:07:6f:90:f8:21:c5:d1:ff:5e:12:ee:fe:43:87:b3:
         2b:50:f2:2d:5e:2a:e7:90:55:fc:aa:b5:6f:0c:0d:62:f9:3d:
         c0:ab:46:7d:6f:3c:cd:29:e4:6b:b0:d6:3f:73:56:77:bb:97:
         b3:30:04:11:1d:c1:4a:e8:00:d9:96:0f:49:4d:22:8a:00:ed:
         ca:15:bf:17:77:d1:f7:f3:df:43:ec:3f:db:5e:a5:8c:5a:4a:
         65:28:59:f4:a6:f8:77:ad:ec:90:46:cf:1c:8d:52:34:db:8d:
         d1:ee:76:cf:35:9a:22:a9:79:3c:94:04:59:09:66:49:7b:78:
         6c:a6:44:94:c3:b9:74:15:0e:7e:85:7c:1d:0c:e1:b4:56:61:
         8c:b4:e5:f8:ce:ea:f8:b0:ef:82:ba:2c:59:fe:f0:2a:c6:e9:
         e2:14:21:cf:72:86:b3:15:9f:6d:cb:5f:d2:eb:aa:66:ab:a6:
         fe:bc:cf:7f:09:0e:87:dc:d6:8a:a0:c0:5a:73:d8:d8:57:a5:
         61:c4:e0:df:13:cb:ef:5a:4d:d4:2c:38:16:e1:60:d7:98:06:
         bc:dc:7a:9d:f7:cc:29:e8:ca:8c:97:e5:72:fb:15:85:37:02:
         ed:38:13:d8
-----BEGIN CERTIFICATE-----
MIIDxjCCAq6gAwIBAgIBATANBgkqhkiG9w0BAQUFADB0MRMwEQYKCZImiZPyLGQB
GRYDb3JnMRYwFAYKCZImiZPyLGQBGRYGc2ltcGxlMRMwEQYDVQQKDApTaW1wbGUg
SW5jMRcwFQYDVQQLDA5TaW1wbGUgUm9vdCBDQTEXMBUGA1UEAwwOU2ltcGxlIFJv
b3QgQ0EwHhcNMjAxMTI3MDUwMzI3WhcNMzAxMTI3MDUwMzI3WjB0MRMwEQYKCZIm
iZPyLGQBGRYDb3JnMRYwFAYKCZImiZPyLGQBGRYGc2ltcGxlMRMwEQYDVQQKDApT
aW1wbGUgSW5jMRcwFQYDVQQLDA5TaW1wbGUgUm9vdCBDQTEXMBUGA1UEAwwOU2lt
cGxlIFJvb3QgQ0EwggEiMA0GCSqGSIb3DQEBAQUAA4IBDwAwggEKAoIBAQDV9k0Y
Gg3+Eg49BNPDT6Fq9nyoVj2llbng2eTkKp6+ukOqwwBpPsDL97PZSL4+LRimv/Sz
hZ5GB90i7mFWeHB23uaFYox778ANHSOpIo7GdEGpkD5tDF7vQ13kOuf64XoV2wWk
O9QJwRpu9JWS6MHkgeL6qWckDyOkcHfF3ZsvYoxstQhLgA0qJtC4f6eCstpySCVV
KbGT1arDCd9Pg+Zdt8ZTt55GnblPYKqe4L6u+dRhJhzjrA8AlZe0ewR0dIMtI39E
c3uAO3qIAnhvwYXA4irtxeEfr8DPUd2Z9TMZo0qZ8cxuLVh7ISnDAEugS405QdVz
MYVFGmi02hpJI9PlAgMBAAGjYzBhMA4GA1UdDwEB/wQEAwIBBjAPBgNVHRMBAf8E
BTADAQH/MB0GA1UdDgQWBBQxXuzQQbN2bWwIxZVJQrDSnx3mJzAfBgNVHSMEGDAW
gBQxXuzQQbN2bWwIxZVJQrDSnx3mJzANBgkqhkiG9w0BAQUFAAOCAQEAgIQ2tvG6
w/QaWf0woqRBKDm9TuJXB2+Q+CHF0f9eEu7+Q4ezK1DyLV4q55BV/Kq1bwwNYvk9
wKtGfW88zSnka7DWP3NWd7uXszAEER3BSugA2ZYPSU0iigDtyhW/F3fR9/PfQ+w/
216ljFpKZShZ9Kb4d63skEbPHI1SNNuN0e52zzWaIql5PJQEWQlmSXt4bKZElMO5
dBUOfoV8HQzhtFZhjLTl+M7q+LDvgrosWf7wKsbp4hQhz3KGsxWfbctf0uuqZqum
/rzPfwkOh9zWiqDAWnPY2FelYcTg3xPL71pN1Cw4FuFg15gGvNx6nffMKejKjJfl
cvsVhTcC7TgT2A==
-----END CERTIFICATE-----
